; ModuleID = '21/298.c'
source_filename = "21/298.c"
target datalayout = "e-m:e-p270:32:32-p271:32:32-p272:64:64-i64:64-f80:128-n8:16:32:64-S128"
target triple = "x86_64-pc-linux-gnu"

@.str = private unnamed_addr constant [3 x i8] c"%d\00", align 1
@.str.1 = private unnamed_addr constant [4 x i8] c",%d\00", align 1

; Function Attrs: noinline nounwind uwtable
define dso_local void @main() #0 {
  %1 = alloca i32, align 4
  %2 = alloca i32, align 4
  %3 = alloca i32, align 4
  %4 = alloca i32, align 4
  %5 = alloca i32, align 4
  %6 = alloca i32, align 4
  %7 = alloca [300 x i32], align 16
  %8 = alloca [100 x i32], align 16
  %9 = alloca double, align 8
  %10 = alloca double, align 8
  store i32 0, i32* %2, align 4
  store i32 0, i32* %4, align 4
  store i32 0, i32* %5, align 4
  store i32 0, i32* %6, align 4
  %11 = bitcast [300 x i32]* %7 to i8*
  call void @llvm.memset.p0i8.i64(i8* align 16 %11, i8 0, i64 1200, i1 false)
  %12 = bitcast [100 x i32]* %8 to i8*
  call void @llvm.memset.p0i8.i64(i8* align 16 %12, i8 0, i64 400, i1 false)
  %13 = bitcast i8* %12 to <{ i32, [99 x i32] }>*
  %14 = getelementptr inbounds <{ i32, [99 x i32] }>, <{ i32, [99 x i32] }>* %13, i32 0, i32 0
  store i32 15, i32* %14, align 16
  store double 0.000000e+00, double* %10, align 8
  %15 = call i32 (i8*, ...) @__isoc99_scanf(i8* getelementptr inbounds ([3 x i8], [3 x i8]* @.str, i64 0, i64 0), i32* %1)
  store i32 0, i32* %3, align 4
  br label %16

16:                                               ; preds = %31, %0
  %17 = load i32, i32* %3, align 4
  %18 = load i32, i32* %1, align 4
  %19 = icmp slt i32 %17, %18
  br i1 %19, label %20, label %34

20:                                               ; preds = %16
  %21 = load i32, i32* %3, align 4
  %22 = sext i32 %21 to i64
  %23 = getelementptr inbounds [300 x i32], [300 x i32]* %7, i64 0, i64 %22
  %24 = call i32 (i8*, ...) @__isoc99_scanf(i8* getelementptr inbounds ([3 x i8], [3 x i8]* @.str, i64 0, i64 0), i32* %23)
  %25 = load i32, i32* %2, align 4
  %26 = load i32, i32* %3, align 4
  %27 = sext i32 %26 to i64
  %28 = getelementptr inbounds [300 x i32], [300 x i32]* %7, i64 0, i64 %27
  %29 = load i32, i32* %28, align 4
  %30 = add nsw i32 %25, %29
  store i32 %30, i32* %2, align 4
  br label %31

31:                                               ; preds = %20
  %32 = load i32, i32* %3, align 4
  %33 = add nsw i32 %32, 1
  store i32 %33, i32* %3, align 4
  br label %16

34:                                               ; preds = %16
  %35 = load i32, i32* %2, align 4
  %36 = sitofp i32 %35 to double
  %37 = load i32, i32* %1, align 4
  %38 = sitofp i32 %37 to double
  %39 = fdiv double %36, %38
  store double %39, double* %9, align 8
  store i32 0, i32* %3, align 4
  br label %40

40:                                               ; preds = %65, %34
  %41 = load i32, i32* %3, align 4
  %42 = load i32, i32* %1, align 4
  %43 = icmp slt i32 %41, %42
  br i1 %43, label %44, label %68

44:                                               ; preds = %40
  %45 = load double, double* %9, align 8
  %46 = load i32, i32* %3, align 4
  %47 = sext i32 %46 to i64
  %48 = getelementptr inbounds [300 x i32], [300 x i32]* %7, i64 0, i64 %47
  %49 = load i32, i32* %48, align 4
  %50 = sitofp i32 %49 to double
  %51 = fsub double %45, %50
  %52 = call double @llvm.fabs.f64(double %51)
  %53 = load double, double* %10, align 8
  %54 = fcmp ogt double %52, %53
  br i1 %54, label %55, label %64

55:                                               ; preds = %44
  %56 = load double, double* %9, align 8
  %57 = load i32, i32* %3, align 4
  %58 = sext i32 %57 to i64
  %59 = getelementptr inbounds [300 x i32], [300 x i32]* %7, i64 0, i64 %58
  %60 = load i32, i32* %59, align 4
  %61 = sitofp i32 %60 to double
  %62 = fsub double %56, %61
  %63 = call double @llvm.fabs.f64(double %62)
  store double %63, double* %10, align 8
  br label %64

64:                                               ; preds = %55, %44
  br label %65

65:                                               ; preds = %64
  %66 = load i32, i32* %3, align 4
  %67 = add nsw i32 %66, 1
  store i32 %67, i32* %3, align 4
  br label %40

68:                                               ; preds = %40
  store i32 0, i32* %3, align 4
  store i32 0, i32* %4, align 4
  br label %69

69:                                               ; preds = %95, %68
  %70 = load i32, i32* %3, align 4
  %71 = load i32, i32* %1, align 4
  %72 = icmp slt i32 %70, %71
  br i1 %72, label %73, label %98

73:                                               ; preds = %69
  %74 = load double, double* %9, align 8
  %75 = load i32, i32* %3, align 4
  %76 = sext i32 %75 to i64
  %77 = getelementptr inbounds [300 x i32], [300 x i32]* %7, i64 0, i64 %76
  %78 = load i32, i32* %77, align 4
  %79 = sitofp i32 %78 to double
  %80 = fsub double %74, %79
  %81 = call double @llvm.fabs.f64(double %80)
  %82 = load double, double* %10, align 8
  %83 = fcmp oeq double %81, %82
  br i1 %83, label %84, label %94

84:                                               ; preds = %73
  %85 = load i32, i32* %3, align 4
  %86 = sext i32 %85 to i64
  %87 = getelementptr inbounds [300 x i32], [300 x i32]* %7, i64 0, i64 %86
  %88 = load i32, i32* %87, align 4
  %89 = load i32, i32* %4, align 4
  %90 = sext i32 %89 to i64
  %91 = getelementptr inbounds [100 x i32], [100 x i32]* %8, i64 0, i64 %90
  store i32 %88, i32* %91, align 4
  %92 = load i32, i32* %4, align 4
  %93 = add nsw i32 %92, 1
  store i32 %93, i32* %4, align 4
  br label %94

94:                                               ; preds = %84, %73
  br label %95

95:                                               ; preds = %94
  %96 = load i32, i32* %3, align 4
  %97 = add nsw i32 %96, 1
  store i32 %97, i32* %3, align 4
  br label %69

98:                                               ; preds = %69
  %99 = load i32, i32* %4, align 4
  store i32 %99, i32* %5, align 4
  store i32 0, i32* %3, align 4
  br label %100

100:                                              ; preds = %147, %98
  %101 = load i32, i32* %3, align 4
  %102 = load i32, i32* %5, align 4
  %103 = sub nsw i32 %102, 1
  %104 = icmp slt i32 %101, %103
  br i1 %104, label %105, label %150

105:                                              ; preds = %100
  store i32 0, i32* %4, align 4
  br label %106

106:                                              ; preds = %143, %105
  %107 = load i32, i32* %4, align 4
  %108 = load i32, i32* %5, align 4
  %109 = load i32, i32* %3, align 4
  %110 = sub nsw i32 %108, %109
  %111 = sub nsw i32 %110, 1
  %112 = icmp slt i32 %107, %111
  br i1 %112, label %113, label %146

113:                                              ; preds = %106
  %114 = load i32, i32* %4, align 4
  %115 = sext i32 %114 to i64
  %116 = getelementptr inbounds [100 x i32], [100 x i32]* %8, i64 0, i64 %115
  %117 = load i32, i32* %116, align 4
  %118 = load i32, i32* %4, align 4
  %119 = add nsw i32 %118, 1
  %120 = sext i32 %119 to i64
  %121 = getelementptr inbounds [100 x i32], [100 x i32]* %8, i64 0, i64 %120
  %122 = load i32, i32* %121, align 4
  %123 = icmp sgt i32 %117, %122
  br i1 %123, label %124, label %142

124:                                              ; preds = %113
  %125 = load i32, i32* %4, align 4
  %126 = sext i32 %125 to i64
  %127 = getelementptr inbounds [100 x i32], [100 x i32]* %8, i64 0, i64 %126
  %128 = load i32, i32* %127, align 4
  store i32 %128, i32* %6, align 4
  %129 = load i32, i32* %4, align 4
  %130 = add nsw i32 %129, 1
  %131 = sext i32 %130 to i64
  %132 = getelementptr inbounds [100 x i32], [100 x i32]* %8, i64 0, i64 %131
  %133 = load i32, i32* %132, align 4
  %134 = load i32, i32* %4, align 4
  %135 = sext i32 %134 to i64
  %136 = getelementptr inbounds [100 x i32], [100 x i32]* %8, i64 0, i64 %135
  store i32 %133, i32* %136, align 4
  %137 = load i32, i32* %6, align 4
  %138 = load i32, i32* %4, align 4
  %139 = add nsw i32 %138, 1
  %140 = sext i32 %139 to i64
  %141 = getelementptr inbounds [100 x i32], [100 x i32]* %8, i64 0, i64 %140
  store i32 %137, i32* %141, align 4
  br label %142

142:                                              ; preds = %124, %113
  br label %143

143:                                              ; preds = %142
  %144 = load i32, i32* %4, align 4
  %145 = add nsw i32 %144, 1
  store i32 %145, i32* %4, align 4
  br label %106

146:                                              ; preds = %106
  br label %147

147:                                              ; preds = %146
  %148 = load i32, i32* %3, align 4
  %149 = add nsw i32 %148, 1
  store i32 %149, i32* %3, align 4
  br label %100

150:                                              ; preds = %100
  %151 = getelementptr inbounds [100 x i32], [100 x i32]* %8, i64 0, i64 0
  %152 = load i32, i32* %151, align 16
  %153 = call i32 (i8*, ...) @printf(i8* getelementptr inbounds ([3 x i8], [3 x i8]* @.str, i64 0, i64 0), i32 %152)
  store i32 1, i32* %3, align 4
  br label %154

154:                                              ; preds = %164, %150
  %155 = load i32, i32* %3, align 4
  %156 = load i32, i32* %5, align 4
  %157 = icmp slt i32 %155, %156
  br i1 %157, label %158, label %167

158:                                              ; preds = %154
  %159 = load i32, i32* %3, align 4
  %160 = sext i32 %159 to i64
  %161 = getelementptr inbounds [100 x i32], [100 x i32]* %8, i64 0, i64 %160
  %162 = load i32, i32* %161, align 4
  %163 = call i32 (i8*, ...) @printf(i8* getelementptr inbounds ([4 x i8], [4 x i8]* @.str.1, i64 0, i64 0), i32 %162)
  br label %164

164:                                              ; preds = %158
  %165 = load i32, i32* %3, align 4
  %166 = add nsw i32 %165, 1
  store i32 %166, i32* %3, align 4
  br label %154

167:                                              ; preds = %154
  ret void
}

; Function Attrs: argmemonly nounwind willreturn
declare void @llvm.memset.p0i8.i64(i8* nocapture writeonly, i8, i64, i1 immarg) #1

declare dso_local i32 @__isoc99_scanf(i8*, ...) #2

; Function Attrs: nounwind readnone speculatable willreturn
declare double @llvm.fabs.f64(double) #3

declare dso_local i32 @printf(i8*, ...) #2


!llvm.module.flags = !{!0}
!llvm.ident = !{!1}

!0 = !{i32 1, !"wchar_size", i32 4}
!1 = !{!"clang version 10.0.0-4ubuntu1 "}
